target datalayout = "e-m:e-p270:32:32-p271:32:32-p272:64:64-i64:64-i128:128-f80:128-n8:16:32:64-S128"
target triple = "x86_64-pc-linux-gnu"

%struct.ident_t = type { i32, i32, i32, i32, ptr }
%"class.ncnn::Mat" = type { ptr, ptr, i64, i32, ptr, i32, i32, i32, i32, i32, i64 }

@1 = private unnamed_addr constant %struct.ident_t { i32 0, i32 514, i32 0, i32 22, ptr @0 }, align 8

; Function Attrs: noinline noreturn nounwind uwtable
define linkonce_odr hidden void @__clang_call_terminate(ptr noundef %0) #9 comdat {
  %2 = call ptr @__cxa_begin_catch(ptr %0) #8
  call void @_ZSt9terminatev() #14
  unreachable
}

; Function Attrs: alwaysinline mustprogress nounwind uwtable
define linkonce_odr hidden noundef ptr @_ZN4ncnn3Mat3rowIaEEPT_i(ptr noundef nonnull align 8 dereferenceable(72) %0, i32 noundef %1) #5 comdat align 2 {
  %3 = alloca ptr, align 8
  %4 = alloca i32, align 4
  store ptr %0, ptr %3, align 8, !tbaa !9
  store i32 %1, ptr %4, align 4, !tbaa !13
  %5 = load ptr, ptr %3, align 8
  %6 = getelementptr inbounds nuw %"class.ncnn::Mat", ptr %5, i32 0, i32 0
  %7 = load ptr, ptr %6, align 8, !tbaa !54
  %8 = getelementptr inbounds nuw %"class.ncnn::Mat", ptr %5, i32 0, i32 6
  %9 = load i32, ptr %8, align 4, !tbaa !41
  %10 = sext i32 %9 to i64
  %11 = load i32, ptr %4, align 4, !tbaa !13
  %12 = sext i32 %11 to i64
  %13 = mul i64 %10, %12
  %14 = getelementptr inbounds nuw %"class.ncnn::Mat", ptr %5, i32 0, i32 2
  %15 = load i64, ptr %14, align 8, !tbaa !32
  %16 = mul i64 %13, %15
  %17 = getelementptr inbounds nuw i8, ptr %7, i64 %16
  ret ptr %17
}

; Function Attrs: alwaysinline mustprogress nounwind uwtable
define linkonce_odr hidden noundef ptr @_ZNK4ncnn3Mat3rowIKaEEPKT_i(ptr noundef nonnull align 8 dereferenceable(72) %0, i32 noundef %1) #5 comdat align 2 {
  %3 = alloca ptr, align 8
  %4 = alloca i32, align 4
  store ptr %0, ptr %3, align 8, !tbaa !9
  store i32 %1, ptr %4, align 4, !tbaa !13
  %5 = load ptr, ptr %3, align 8
  %6 = getelementptr inbounds nuw %"class.ncnn::Mat", ptr %5, i32 0, i32 0
  %7 = load ptr, ptr %6, align 8, !tbaa !54
  %8 = getelementptr inbounds nuw %"class.ncnn::Mat", ptr %5, i32 0, i32 6
  %9 = load i32, ptr %8, align 4, !tbaa !41
  %10 = sext i32 %9 to i64
  %11 = load i32, ptr %4, align 4, !tbaa !13
  %12 = sext i32 %11 to i64
  %13 = mul i64 %10, %12
  %14 = getelementptr inbounds nuw %"class.ncnn::Mat", ptr %5, i32 0, i32 2
  %15 = load i64, ptr %14, align 8, !tbaa !32
  %16 = mul i64 %13, %15
  %17 = getelementptr inbounds nuw i8, ptr %7, i64 %16
  ret ptr %17
}

; Function Attrs: alwaysinline norecurse nounwind uwtable
define internal void @_ZNK4ncnn11Packing_x8612forward_int8ERKNS_3MatERS1_RKNS_6OptionE.omp_outlined(ptr noalias noundef %0, ptr noalias noundef %1, ptr noundef nonnull align 4 dereferenceable(4) %2, ptr noundef nonnull align 8 dereferenceable(72) %3, ptr noundef nonnull align 8 dereferenceable(72) %4, ptr noundef nonnull align 4 dereferenceable(4) %5) #11 personality ptr @__gxx_personality_v0 {
  %7 = alloca ptr, align 8
  %8 = alloca ptr, align 8
  %9 = alloca ptr, align 8
  %10 = alloca ptr, align 8
  %11 = alloca ptr, align 8
  %12 = alloca ptr, align 8
  %13 = alloca ptr, align 8
  %14 = alloca ptr, align 8
  %15 = alloca i32, align 4
  %16 = alloca i32, align 4
  %17 = alloca i32, align 4
  %18 = alloca i32, align 4
  %19 = alloca i32, align 4
  %20 = alloca i32, align 4
  %21 = alloca i32, align 4
  %22 = alloca i32, align 4
  %23 = alloca i32, align 4
  %24 = alloca ptr, align 8
  %25 = alloca ptr, align 8
  %26 = alloca ptr, align 8
  %27 = alloca ptr, align 8
  %28 = alloca ptr, align 8
  %29 = alloca ptr, align 8
  %30 = alloca ptr, align 8
  %31 = alloca ptr, align 8
  %32 = alloca ptr, align 8
  %33 = alloca i32, align 4
  store ptr %0, ptr %7, align 8, !tbaa !56
  store ptr %1, ptr %8, align 8, !tbaa !56
  store ptr %2, ptr %9, align 8, !tbaa !56
  store ptr %3, ptr %10, align 8, !tbaa !9
  store ptr %4, ptr %11, align 8, !tbaa !9
  store ptr %5, ptr %12, align 8, !tbaa !56
  %34 = load ptr, ptr %9, align 8, !tbaa !56
  %35 = load ptr, ptr %10, align 8, !tbaa !9
  %36 = load ptr, ptr %11, align 8, !tbaa !9
  %37 = load ptr, ptr %12, align 8, !tbaa !56
  store ptr %35, ptr %13, align 8
  store ptr %36, ptr %14, align 8
  call void @llvm.lifetime.start.p0(i64 4, ptr %15) #8
  call void @llvm.lifetime.start.p0(i64 4, ptr %16) #8
  %38 = load i32, ptr %34, align 4, !tbaa !13
  store i32 %38, ptr %16, align 4, !tbaa !13
  call void @llvm.lifetime.start.p0(i64 4, ptr %17) #8
  %39 = load i32, ptr %16, align 4, !tbaa !13
  %40 = sub nsw i32 %39, 0
  %41 = sdiv i32 %40, 1
  %42 = sub nsw i32 %41, 1
  store i32 %42, ptr %17, align 4, !tbaa !13
  call void @llvm.lifetime.start.p0(i64 4, ptr %18) #8
  store i32 0, ptr %18, align 4, !tbaa !13
  call void @llvm.lifetime.end.p0(i64 4, ptr %18) #8
  %43 = load i32, ptr %16, align 4, !tbaa !13
  %44 = icmp slt i32 0, %43
  br i1 %44, label %45, label %178

45:                                               ; preds = %6
  call void @llvm.lifetime.start.p0(i64 4, ptr %19) #8
  store i32 0, ptr %19, align 4, !tbaa !13
  call void @llvm.lifetime.start.p0(i64 4, ptr %20) #8
  %46 = load i32, ptr %17, align 4, !tbaa !13
  store i32 %46, ptr %20, align 4, !tbaa !13
  call void @llvm.lifetime.start.p0(i64 4, ptr %21) #8
  store i32 1, ptr %21, align 4, !tbaa !13
  call void @llvm.lifetime.start.p0(i64 4, ptr %22) #8
  store i32 0, ptr %22, align 4, !tbaa !13
  call void @llvm.lifetime.start.p0(i64 4, ptr %23) #8
  %47 = load ptr, ptr %7, align 8
  %48 = load i32, ptr %47, align 4, !tbaa !13
  call void @__kmpc_for_static_init_4(ptr @1, i32 %48, i32 34, ptr %22, ptr %19, ptr %20, ptr %21, i32 1, i32 1)
  %49 = load i32, ptr %20, align 4, !tbaa !13
  %50 = load i32, ptr %17, align 4, !tbaa !13
  %51 = icmp sgt i32 %49, %50
  br i1 %51, label %52, label %54

52:                                               ; preds = %45
  %53 = load i32, ptr %17, align 4, !tbaa !13
  br label %56

54:                                               ; preds = %45
  %55 = load i32, ptr %20, align 4, !tbaa !13
  br label %56

56:                                               ; preds = %54, %52
  %57 = phi i32 [ %53, %52 ], [ %55, %54 ]
  store i32 %57, ptr %20, align 4, !tbaa !13
  %58 = load i32, ptr %19, align 4, !tbaa !13
  store i32 %58, ptr %15, align 4, !tbaa !13
  br label %59

59:                                               ; preds = %171, %56
  %60 = load i32, ptr %15, align 4, !tbaa !13
  %61 = load i32, ptr %20, align 4, !tbaa !13
  %62 = icmp sle i32 %60, %61
  br i1 %62, label %64, label %63

63:                                               ; preds = %59
  br label %174

64:                                               ; preds = %59
  %65 = load i32, ptr %15, align 4, !tbaa !13
  %66 = mul nsw i32 %65, 1
  %67 = add nsw i32 0, %66
  store i32 %67, ptr %23, align 4, !tbaa !13
  call void @llvm.lifetime.start.p0(i64 8, ptr %24) #8
  %68 = load ptr, ptr %13, align 8, !tbaa !9
  %69 = load i32, ptr %23, align 4, !tbaa !13
  %70 = mul nsw i32 %69, 8
  %71 = invoke noundef ptr @_ZNK4ncnn3Mat3rowIKaEEPKT_i(ptr noundef nonnull align 8 dereferenceable(72) %68, i32 noundef %70)
          to label %72 unwind label %179

72:                                               ; preds = %64
  store ptr %71, ptr %24, align 8, !tbaa !95
  call void @llvm.lifetime.start.p0(i64 8, ptr %25) #8
  %73 = load ptr, ptr %13, align 8, !tbaa !9
  %74 = load i32, ptr %23, align 4, !tbaa !13
  %75 = mul nsw i32 %74, 8
  %76 = add nsw i32 %75, 1
  %77 = invoke noundef ptr @_ZNK4ncnn3Mat3rowIKaEEPKT_i(ptr noundef nonnull align 8 dereferenceable(72) %73, i32 noundef %76)
          to label %78 unwind label %179

78:                                               ; preds = %72
  store ptr %77, ptr %25, align 8, !tbaa !95
  call void @llvm.lifetime.start.p0(i64 8, ptr %26) #8
  %79 = load ptr, ptr %13, align 8, !tbaa !9
  %80 = load i32, ptr %23, align 4, !tbaa !13
  %81 = mul nsw i32 %80, 8
  %82 = add nsw i32 %81, 2
  %83 = invoke noundef ptr @_ZNK4ncnn3Mat3rowIKaEEPKT_i(ptr noundef nonnull align 8 dereferenceable(72) %79, i32 noundef %82)
          to label %84 unwind label %179

84:                                               ; preds = %78
  store ptr %83, ptr %26, align 8, !tbaa !95
  call void @llvm.lifetime.start.p0(i64 8, ptr %27) #8
  %85 = load ptr, ptr %13, align 8, !tbaa !9
  %86 = load i32, ptr %23, align 4, !tbaa !13
  %87 = mul nsw i32 %86, 8
  %88 = add nsw i32 %87, 3
  %89 = invoke noundef ptr @_ZNK4ncnn3Mat3rowIKaEEPKT_i(ptr noundef nonnull align 8 dereferenceable(72) %85, i32 noundef %88)
          to label %90 unwind label %179

90:                                               ; preds = %84
  store ptr %89, ptr %27, align 8, !tbaa !95
  call void @llvm.lifetime.start.p0(i64 8, ptr %28) #8
  %91 = load ptr, ptr %13, align 8, !tbaa !9
  %92 = load i32, ptr %23, align 4, !tbaa !13
  %93 = mul nsw i32 %92, 8
  %94 = add nsw i32 %93, 4
  %95 = invoke noundef ptr @_ZNK4ncnn3Mat3rowIKaEEPKT_i(ptr noundef nonnull align 8 dereferenceable(72) %91, i32 noundef %94)
          to label %96 unwind label %179

96:                                               ; preds = %90
  store ptr %95, ptr %28, align 8, !tbaa !95
  call void @llvm.lifetime.start.p0(i64 8, ptr %29) #8
  %97 = load ptr, ptr %13, align 8, !tbaa !9
  %98 = load i32, ptr %23, align 4, !tbaa !13
  %99 = mul nsw i32 %98, 8
  %100 = add nsw i32 %99, 5
  %101 = invoke noundef ptr @_ZNK4ncnn3Mat3rowIKaEEPKT_i(ptr noundef nonnull align 8 dereferenceable(72) %97, i32 noundef %100)
          to label %102 unwind label %179

102:                                              ; preds = %96
  store ptr %101, ptr %29, align 8, !tbaa !95
  call void @llvm.lifetime.start.p0(i64 8, ptr %30) #8
  %103 = load ptr, ptr %13, align 8, !tbaa !9
  %104 = load i32, ptr %23, align 4, !tbaa !13
  %105 = mul nsw i32 %104, 8
  %106 = add nsw i32 %105, 6
  %107 = invoke noundef ptr @_ZNK4ncnn3Mat3rowIKaEEPKT_i(ptr noundef nonnull align 8 dereferenceable(72) %103, i32 noundef %106)
          to label %108 unwind label %179

108:                                              ; preds = %102
  store ptr %107, ptr %30, align 8, !tbaa !95
  call void @llvm.lifetime.start.p0(i64 8, ptr %31) #8
  %109 = load ptr, ptr %13, align 8, !tbaa !9
  %110 = load i32, ptr %23, align 4, !tbaa !13
  %111 = mul nsw i32 %110, 8
  %112 = add nsw i32 %111, 7
  %113 = invoke noundef ptr @_ZNK4ncnn3Mat3rowIKaEEPKT_i(ptr noundef nonnull align 8 dereferenceable(72) %109, i32 noundef %112)
          to label %114 unwind label %179

114:                                              ; preds = %108
  store ptr %113, ptr %31, align 8, !tbaa !95
  call void @llvm.lifetime.start.p0(i64 8, ptr %32) #8
  %115 = load ptr, ptr %14, align 8, !tbaa !9
  %116 = load i32, ptr %23, align 4, !tbaa !13
  %117 = invoke noundef ptr @_ZN4ncnn3Mat3rowIaEEPT_i(ptr noundef nonnull align 8 dereferenceable(72) %115, i32 noundef %116)
          to label %118 unwind label %179

118:                                              ; preds = %114
  store ptr %117, ptr %32, align 8, !tbaa !95
  call void @llvm.lifetime.start.p0(i64 4, ptr %33) #8
  store i32 0, ptr %33, align 4, !tbaa !13
  br label %119

119:                                              ; preds = %166, %118
  %120 = load i32, ptr %33, align 4, !tbaa !13
  %121 = load i32, ptr %37, align 4, !tbaa !13
  %122 = icmp slt i32 %120, %121
  br i1 %122, label %123, label %169

123:                                              ; preds = %119
  %124 = load ptr, ptr %24, align 8, !tbaa !95
  %125 = getelementptr inbounds nuw i8, ptr %124, i32 1
  store ptr %125, ptr %24, align 8, !tbaa !95
  %126 = load i8, ptr %124, align 1, !tbaa !59
  %127 = load ptr, ptr %32, align 8, !tbaa !95
  %128 = getelementptr inbounds i8, ptr %127, i64 0
  store i8 %126, ptr %128, align 1, !tbaa !59
  %129 = load ptr, ptr %25, align 8, !tbaa !95
  %130 = getelementptr inbounds nuw i8, ptr %129, i32 1
  store ptr %130, ptr %25, align 8, !tbaa !95
  %131 = load i8, ptr %129, align 1, !tbaa !59
  %132 = load ptr, ptr %32, align 8, !tbaa !95
  %133 = getelementptr inbounds i8, ptr %132, i64 1
  store i8 %131, ptr %133, align 1, !tbaa !59
  %134 = load ptr, ptr %26, align 8, !tbaa !95
  %135 = getelementptr inbounds nuw i8, ptr %134, i32 1
  store ptr %135, ptr %26, align 8, !tbaa !95
  %136 = load i8, ptr %134, align 1, !tbaa !59
  %137 = load ptr, ptr %32, align 8, !tbaa !95
  %138 = getelementptr inbounds i8, ptr %137, i64 2
  store i8 %136, ptr %138, align 1, !tbaa !59
  %139 = load ptr, ptr %27, align 8, !tbaa !95
  %140 = getelementptr inbounds nuw i8, ptr %139, i32 1
  store ptr %140, ptr %27, align 8, !tbaa !95
  %141 = load i8, ptr %139, align 1, !tbaa !59
  %142 = load ptr, ptr %32, align 8, !tbaa !95
  %143 = getelementptr inbounds i8, ptr %142, i64 3
  store i8 %141, ptr %143, align 1, !tbaa !59
  %144 = load ptr, ptr %28, align 8, !tbaa !95
  %145 = getelementptr inbounds nuw i8, ptr %144, i32 1
  store ptr %145, ptr %28, align 8, !tbaa !95
  %146 = load i8, ptr %144, align 1, !tbaa !59
  %147 = load ptr, ptr %32, align 8, !tbaa !95
  %148 = getelementptr inbounds i8, ptr %147, i64 4
  store i8 %146, ptr %148, align 1, !tbaa !59
  %149 = load ptr, ptr %29, align 8, !tbaa !95
  %150 = getelementptr inbounds nuw i8, ptr %149, i32 1
  store ptr %150, ptr %29, align 8, !tbaa !95
  %151 = load i8, ptr %149, align 1, !tbaa !59
  %152 = load ptr, ptr %32, align 8, !tbaa !95
  %153 = getelementptr inbounds i8, ptr %152, i64 5
  store i8 %151, ptr %153, align 1, !tbaa !59
  %154 = load ptr, ptr %30, align 8, !tbaa !95
  %155 = getelementptr inbounds nuw i8, ptr %154, i32 1
  store ptr %155, ptr %30, align 8, !tbaa !95
  %156 = load i8, ptr %154, align 1, !tbaa !59
  %157 = load ptr, ptr %32, align 8, !tbaa !95
  %158 = getelementptr inbounds i8, ptr %157, i64 6
  store i8 %156, ptr %158, align 1, !tbaa !59
  %159 = load ptr, ptr %31, align 8, !tbaa !95
  %160 = getelementptr inbounds nuw i8, ptr %159, i32 1
  store ptr %160, ptr %31, align 8, !tbaa !95
  %161 = load i8, ptr %159, align 1, !tbaa !59
  %162 = load ptr, ptr %32, align 8, !tbaa !95
  %163 = getelementptr inbounds i8, ptr %162, i64 7
  store i8 %161, ptr %163, align 1, !tbaa !59
  %164 = load ptr, ptr %32, align 8, !tbaa !95
  %165 = getelementptr inbounds i8, ptr %164, i64 8
  store ptr %165, ptr %32, align 8, !tbaa !95
  br label %166

166:                                              ; preds = %123
  %167 = load i32, ptr %33, align 4, !tbaa !13
  %168 = add nsw i32 %167, 1
  store i32 %168, ptr %33, align 4, !tbaa !13
  br label %119, !llvm.loop !96

169:                                              ; preds = %119
  call void @llvm.lifetime.end.p0(i64 4, ptr %33) #8
  call void @llvm.lifetime.end.p0(i64 8, ptr %32) #8
  call void @llvm.lifetime.end.p0(i64 8, ptr %31) #8
  call void @llvm.lifetime.end.p0(i64 8, ptr %30) #8
  call void @llvm.lifetime.end.p0(i64 8, ptr %29) #8
  call void @llvm.lifetime.end.p0(i64 8, ptr %28) #8
  call void @llvm.lifetime.end.p0(i64 8, ptr %27) #8
  call void @llvm.lifetime.end.p0(i64 8, ptr %26) #8
  call void @llvm.lifetime.end.p0(i64 8, ptr %25) #8
  call void @llvm.lifetime.end.p0(i64 8, ptr %24) #8
  br label %170

170:                                              ; preds = %169
  br label %171

171:                                              ; preds = %170
  %172 = load i32, ptr %15, align 4, !tbaa !13
  %173 = add nsw i32 %172, 1
  store i32 %173, ptr %15, align 4, !tbaa !13
  br label %59

174:                                              ; preds = %63
  br label %175

175:                                              ; preds = %174
  %176 = load ptr, ptr %7, align 8
  %177 = load i32, ptr %176, align 4, !tbaa !13
  call void @__kmpc_for_static_fini(ptr @1, i32 %177)
  call void @llvm.lifetime.end.p0(i64 4, ptr %23) #8
  call void @llvm.lifetime.end.p0(i64 4, ptr %22) #8
  call void @llvm.lifetime.end.p0(i64 4, ptr %21) #8
  call void @llvm.lifetime.end.p0(i64 4, ptr %20) #8
  call void @llvm.lifetime.end.p0(i64 4, ptr %19) #8
  br label %178

178:                                              ; preds = %175, %6
  call void @llvm.lifetime.end.p0(i64 4, ptr %17) #8
  call void @llvm.lifetime.end.p0(i64 4, ptr %16) #8
  call void @llvm.lifetime.end.p0(i64 4, ptr %15) #8
  ret void

179:                                              ; preds = %114, %108, %102, %96, %90, %84, %78, %72, %64
  %180 = landingpad { ptr, i32 }
          catch ptr null
  %181 = extractvalue { ptr, i32 } %180, 0
  call void @__clang_call_terminate(ptr %181) #14
  unreachable
}